; Function Attrs: nofree nounwind sspstrong memory(write) uwtable
define hidden void @FLAC__window_blackman_harris_4term_92db_sidelobe(ptr noundef writeonly captures(none) %0, i32 noundef %1) local_unnamed_addr #1 {
  %.not.not12 = icmp sgt i32 %1, 0
  br i1 %.not.not12, label %.lr.ph, label %._crit_edge

.lr.ph:                                           ; preds = %2
  %3 = add nsw i32 %1, -1
  %4 = uitofp nneg i32 %3 to double
  %wide.trip.count = zext nneg i32 %1 to i64
  %5 = fdiv reassoc nsz arcp double 1.000000e+00, %4
  %6 = fdiv reassoc nsz arcp double 1.000000e+00, %4
  %7 = fdiv reassoc nsz arcp double 1.000000e+00, %4
  br label %8

8:                                                ; preds = %.lr.ph, %8
  %indvars.iv = phi i64 [ 0, %.lr.ph ], [ %indvars.iv.next, %8 ]
  %9 = trunc nuw nsw i64 %indvars.iv to i32
  %10 = uitofp nneg i32 %9 to double
  %11 = fmul reassoc nsz arcp double %10, 0x401921FB54442D18
  %12 = fmul reassoc nsz arcp double %11, %5
  %13 = fptrunc reassoc nsz arcp double %12 to float
  %14 = tail call reassoc nsz arcp float @cosf(float noundef %13) #6, !tbaa !12
  %15 = tail call reassoc nsz arcp float @llvm.fmuladd.f32(float %14, float 0xBFDF4024C0000000, float 0x3FD6F5C280000000)
  %16 = fmul reassoc nsz arcp double %10, 0x402921FB54442D18
  %17 = fmul reassoc nsz arcp double %16, %6
  %18 = fptrunc reassoc nsz arcp double %17 to float
  %19 = tail call reassoc nsz arcp float @cosf(float noundef %18) #6, !tbaa !12
  %20 = tail call reassoc nsz arcp float @llvm.fmuladd.f32(float %19, float 0x3FC2157680000000, float %15)
  %21 = fmul reassoc nsz arcp double %10, 0x4032D97C7F3321D2
  %22 = fmul reassoc nsz arcp double %21, %7
  %23 = fptrunc reassoc nsz arcp double %22 to float
  %24 = tail call reassoc nsz arcp float @cosf(float noundef %23) #6, !tbaa !12
  %25 = tail call reassoc nsz arcp float @llvm.fmuladd.f32(float %24, float 0xBF87EBAF20000000, float %20)
  %26 = getelementptr inbounds nuw float, ptr %0, i64 %indvars.iv
  store float %25, ptr %26, align 4, !tbaa !3
  %indvars.iv.next = add nuw nsw i64 %indvars.iv, 1
  %exitcond.not = icmp eq i64 %indvars.iv.next, %wide.trip.count
  br i1 %exitcond.not, label %._crit_edge, label %8, !llvm.loop !16

._crit_edge:                                      ; preds = %8, %2
  ret void
}